target datalayout = "e-m:e-p270:32:32-p271:32:32-p272:64:64-i64:64-i128:128-f80:128-n8:16:32:64-S128"
target triple = "x86_64-pc-linux-gnu"

%struct.jpeg_compress_struct = type { ptr, ptr, ptr, ptr, i32, i32, ptr, i32, i32, i32, i32, double, i32, i32, i32, ptr, [4 x ptr], [4 x ptr], [4 x ptr], [16 x i8], [16 x i8], [16 x i8], i32, ptr, i32, i32, i32, i32, i32, i32, i32, i32, i32, i8, i8, i8, i16, i16, i32, i32, i32, i32, i32, i32, i32, [4 x ptr], i32, i32, i32, [10 x i32], i32, i32, i32, i32, ptr, ptr, ptr, ptr, ptr, ptr, ptr, ptr, ptr, ptr, i32 }
%struct.jpeg_error_mgr = type { ptr, ptr, ptr, ptr, ptr, i32, %union.anon, i32, i64, ptr, i32, ptr, i32, i32 }
%union.anon = type { [8 x i32], [48 x i8] }
%struct.gif_source_struct = type { %struct.cjpeg_source_struct, ptr, ptr, [260 x i8], i32, i32, i32, i32, i32, i32, i32, i32, i32, i32, i32, i32, i32, ptr, ptr, ptr, ptr, i32, ptr, i32, i32, i32, i32 }
%struct.cjpeg_source_struct = type { ptr, ptr, ptr, ptr, ptr, ptr, ptr, i32, i32 }

; Function Attrs: nounwind uwtable
define internal i32 @ReadByte(ptr noundef %0) #0 {
  %2 = alloca ptr, align 8
  %3 = alloca ptr, align 8
  %4 = alloca i32, align 4
  store ptr %0, ptr %2, align 8, !tbaa !37
  call void @llvm.lifetime.start.p0(i64 8, ptr %3) #3
  %5 = load ptr, ptr %2, align 8, !tbaa !37
  %6 = getelementptr inbounds nuw %struct.gif_source_struct, ptr %5, i32 0, i32 0
  %7 = getelementptr inbounds nuw %struct.cjpeg_source_struct, ptr %6, i32 0, i32 3
  %8 = load ptr, ptr %7, align 8, !tbaa !51
  store ptr %8, ptr %3, align 8, !tbaa !86
  call void @llvm.lifetime.start.p0(i64 4, ptr %4) #3
  %9 = load ptr, ptr %3, align 8, !tbaa !86
  %10 = call i32 @getc(ptr noundef %9)
  store i32 %10, ptr %4, align 4, !tbaa !54
  %11 = icmp eq i32 %10, -1
  br i1 %11, label %12, label %29

12:                                               ; preds = %1
  %13 = load ptr, ptr %2, align 8, !tbaa !37
  %14 = getelementptr inbounds nuw %struct.gif_source_struct, ptr %13, i32 0, i32 1
  %15 = load ptr, ptr %14, align 8, !tbaa !38
  %16 = getelementptr inbounds nuw %struct.jpeg_compress_struct, ptr %15, i32 0, i32 0
  %17 = load ptr, ptr %16, align 8, !tbaa !27
  %18 = getelementptr inbounds nuw %struct.jpeg_error_mgr, ptr %17, i32 0, i32 5
  store i32 43, ptr %18, align 8, !tbaa !28
  %19 = load ptr, ptr %2, align 8, !tbaa !37
  %20 = getelementptr inbounds nuw %struct.gif_source_struct, ptr %19, i32 0, i32 1
  %21 = load ptr, ptr %20, align 8, !tbaa !38
  %22 = getelementptr inbounds nuw %struct.jpeg_compress_struct, ptr %21, i32 0, i32 0
  %23 = load ptr, ptr %22, align 8, !tbaa !27
  %24 = getelementptr inbounds nuw %struct.jpeg_error_mgr, ptr %23, i32 0, i32 0
  %25 = load ptr, ptr %24, align 8, !tbaa !33
  %26 = load ptr, ptr %2, align 8, !tbaa !37
  %27 = getelementptr inbounds nuw %struct.gif_source_struct, ptr %26, i32 0, i32 1
  %28 = load ptr, ptr %27, align 8, !tbaa !38
  call void %25(ptr noundef %28)
  br label %29

29:                                               ; preds = %12, %1
  %30 = load i32, ptr %4, align 4, !tbaa !54
  call void @llvm.lifetime.end.p0(i64 4, ptr %4) #3
  call void @llvm.lifetime.end.p0(i64 8, ptr %3) #3
  ret i32 %30
}

; Function Attrs: nounwind uwtable
define internal i32 @GetDataBlock(ptr noundef %0, ptr noundef %1) #0 {
  %3 = alloca ptr, align 8
  %4 = alloca ptr, align 8
  %5 = alloca i32, align 4
  store ptr %0, ptr %3, align 8, !tbaa !37
  store ptr %1, ptr %4, align 8, !tbaa !79
  call void @llvm.lifetime.start.p0(i64 4, ptr %5) #3
  %6 = load ptr, ptr %3, align 8, !tbaa !37
  %7 = call i32 @ReadByte(ptr noundef %6)
  store i32 %7, ptr %5, align 4, !tbaa !54
  %8 = load i32, ptr %5, align 4, !tbaa !54
  %9 = icmp sgt i32 %8, 0
  br i1 %9, label %10, label %40

10:                                               ; preds = %2
  %11 = load ptr, ptr %4, align 8, !tbaa !79
  %12 = load i32, ptr %5, align 4, !tbaa !54
  %13 = sext i32 %12 to i64
  %14 = load ptr, ptr %3, align 8, !tbaa !37
  %15 = getelementptr inbounds nuw %struct.gif_source_struct, ptr %14, i32 0, i32 0
  %16 = getelementptr inbounds nuw %struct.cjpeg_source_struct, ptr %15, i32 0, i32 3
  %17 = load ptr, ptr %16, align 8, !tbaa !51
  %18 = call i64 @fread(ptr noundef %11, i64 noundef 1, i64 noundef %13, ptr noundef %17)
  %19 = load i32, ptr %5, align 4, !tbaa !54
  %20 = sext i32 %19 to i64
  %21 = icmp eq i64 %18, %20
  br i1 %21, label %39, label %22

22:                                               ; preds = %10
  %23 = load ptr, ptr %3, align 8, !tbaa !37
  %24 = getelementptr inbounds nuw %struct.gif_source_struct, ptr %23, i32 0, i32 1
  %25 = load ptr, ptr %24, align 8, !tbaa !38
  %26 = getelementptr inbounds nuw %struct.jpeg_compress_struct, ptr %25, i32 0, i32 0
  %27 = load ptr, ptr %26, align 8, !tbaa !27
  %28 = getelementptr inbounds nuw %struct.jpeg_error_mgr, ptr %27, i32 0, i32 5
  store i32 43, ptr %28, align 8, !tbaa !28
  %29 = load ptr, ptr %3, align 8, !tbaa !37
  %30 = getelementptr inbounds nuw %struct.gif_source_struct, ptr %29, i32 0, i32 1
  %31 = load ptr, ptr %30, align 8, !tbaa !38
  %32 = getelementptr inbounds nuw %struct.jpeg_compress_struct, ptr %31, i32 0, i32 0
  %33 = load ptr, ptr %32, align 8, !tbaa !27
  %34 = getelementptr inbounds nuw %struct.jpeg_error_mgr, ptr %33, i32 0, i32 0
  %35 = load ptr, ptr %34, align 8, !tbaa !33
  %36 = load ptr, ptr %3, align 8, !tbaa !37
  %37 = getelementptr inbounds nuw %struct.gif_source_struct, ptr %36, i32 0, i32 1
  %38 = load ptr, ptr %37, align 8, !tbaa !38
  call void %35(ptr noundef %38)
  br label %39

39:                                               ; preds = %22, %10
  br label %40

40:                                               ; preds = %39, %2
  %41 = load i32, ptr %5, align 4, !tbaa !54
  call void @llvm.lifetime.end.p0(i64 4, ptr %5) #3
  ret i32 %41
}

; Function Attrs: nounwind uwtable
define internal i32 @GetCode(ptr noundef %0) #0 {
  %2 = alloca i32, align 4
  %3 = alloca ptr, align 8
  %4 = alloca i32, align 4
  %5 = alloca i32, align 4
  %6 = alloca i32, align 4
  %7 = alloca i32, align 4
  store ptr %0, ptr %3, align 8, !tbaa !37
  call void @llvm.lifetime.start.p0(i64 4, ptr %4) #3
  call void @llvm.lifetime.start.p0(i64 4, ptr %5) #3
  call void @llvm.lifetime.start.p0(i64 4, ptr %6) #3
  br label %8

8:                                                ; preds = %109, %1
  %9 = load ptr, ptr %3, align 8, !tbaa !37
  %10 = getelementptr inbounds nuw %struct.gif_source_struct, ptr %9, i32 0, i32 6
  %11 = load i32, ptr %10, align 4, !tbaa !89
  %12 = load ptr, ptr %3, align 8, !tbaa !37
  %13 = getelementptr inbounds nuw %struct.gif_source_struct, ptr %12, i32 0, i32 12
  %14 = load i32, ptr %13, align 4, !tbaa !107
  %15 = add nsw i32 %11, %14
  %16 = load ptr, ptr %3, align 8, !tbaa !37
  %17 = getelementptr inbounds nuw %struct.gif_source_struct, ptr %16, i32 0, i32 5
  %18 = load i32, ptr %17, align 8, !tbaa !88
  %19 = icmp sgt i32 %15, %18
  br i1 %19, label %20, label %130

20:                                               ; preds = %8
  %21 = load ptr, ptr %3, align 8, !tbaa !37
  %22 = getelementptr inbounds nuw %struct.gif_source_struct, ptr %21, i32 0, i32 7
  %23 = load i32, ptr %22, align 8, !tbaa !90
  %24 = icmp ne i32 %23, 0
  br i1 %24, label %25, label %31

25:                                               ; preds = %20
  %26 = load ptr, ptr %3, align 8, !tbaa !37
  %27 = getelementptr inbounds nuw %struct.gif_source_struct, ptr %26, i32 0, i32 7
  store i32 0, ptr %27, align 8, !tbaa !90
  %28 = load ptr, ptr %3, align 8, !tbaa !37
  %29 = getelementptr inbounds nuw %struct.gif_source_struct, ptr %28, i32 0, i32 10
  %30 = load i32, ptr %29, align 4, !tbaa !78
  store i32 %30, ptr %2, align 4
  store i32 1, ptr %7, align 4
  br label %186

31:                                               ; preds = %20
  %32 = load ptr, ptr %3, align 8, !tbaa !37
  %33 = getelementptr inbounds nuw %struct.gif_source_struct, ptr %32, i32 0, i32 8
  %34 = load i32, ptr %33, align 4, !tbaa !91
  %35 = icmp ne i32 %34, 0
  br i1 %35, label %36, label %56

36:                                               ; preds = %31
  %37 = load ptr, ptr %3, align 8, !tbaa !37
  %38 = getelementptr inbounds nuw %struct.gif_source_struct, ptr %37, i32 0, i32 1
  %39 = load ptr, ptr %38, align 8, !tbaa !38
  %40 = getelementptr inbounds nuw %struct.jpeg_compress_struct, ptr %39, i32 0, i32 0
  %41 = load ptr, ptr %40, align 8, !tbaa !27
  %42 = getelementptr inbounds nuw %struct.jpeg_error_mgr, ptr %41, i32 0, i32 5
  store i32 1027, ptr %42, align 8, !tbaa !28
  %43 = load ptr, ptr %3, align 8, !tbaa !37
  %44 = getelementptr inbounds nuw %struct.gif_source_struct, ptr %43, i32 0, i32 1
  %45 = load ptr, ptr %44, align 8, !tbaa !38
  %46 = getelementptr inbounds nuw %struct.jpeg_compress_struct, ptr %45, i32 0, i32 0
  %47 = load ptr, ptr %46, align 8, !tbaa !27
  %48 = getelementptr inbounds nuw %struct.jpeg_error_mgr, ptr %47, i32 0, i32 1
  %49 = load ptr, ptr %48, align 8, !tbaa !55
  %50 = load ptr, ptr %3, align 8, !tbaa !37
  %51 = getelementptr inbounds nuw %struct.gif_source_struct, ptr %50, i32 0, i32 1
  %52 = load ptr, ptr %51, align 8, !tbaa !38
  call void %49(ptr noundef %52, i32 noundef -1)
  %53 = load ptr, ptr %3, align 8, !tbaa !37
  %54 = getelementptr inbounds nuw %struct.gif_source_struct, ptr %53, i32 0, i32 11
  %55 = load i32, ptr %54, align 8, !tbaa !92
  store i32 %55, ptr %2, align 4
  store i32 1, ptr %7, align 4
  br label %186

56:                                               ; preds = %31
  %57 = load ptr, ptr %3, align 8, !tbaa !37
  %58 = getelementptr inbounds nuw %struct.gif_source_struct, ptr %57, i32 0, i32 3
  %59 = load ptr, ptr %3, align 8, !tbaa !37
  %60 = getelementptr inbounds nuw %struct.gif_source_struct, ptr %59, i32 0, i32 4
  %61 = load i32, ptr %60, align 4, !tbaa !87
  %62 = sub nsw i32 %61, 2
  %63 = sext i32 %62 to i64
  %64 = getelementptr inbounds [260 x i8], ptr %58, i64 0, i64 %63
  %65 = load i8, ptr %64, align 1, !tbaa !32
  %66 = load ptr, ptr %3, align 8, !tbaa !37
  %67 = getelementptr inbounds nuw %struct.gif_source_struct, ptr %66, i32 0, i32 3
  %68 = getelementptr inbounds [260 x i8], ptr %67, i64 0, i64 0
  store i8 %65, ptr %68, align 8, !tbaa !32
  %69 = load ptr, ptr %3, align 8, !tbaa !37
  %70 = getelementptr inbounds nuw %struct.gif_source_struct, ptr %69, i32 0, i32 3
  %71 = load ptr, ptr %3, align 8, !tbaa !37
  %72 = getelementptr inbounds nuw %struct.gif_source_struct, ptr %71, i32 0, i32 4
  %73 = load i32, ptr %72, align 4, !tbaa !87
  %74 = sub nsw i32 %73, 1
  %75 = sext i32 %74 to i64
  %76 = getelementptr inbounds [260 x i8], ptr %70, i64 0, i64 %75
  %77 = load i8, ptr %76, align 1, !tbaa !32
  %78 = load ptr, ptr %3, align 8, !tbaa !37
  %79 = getelementptr inbounds nuw %struct.gif_source_struct, ptr %78, i32 0, i32 3
  %80 = getelementptr inbounds [260 x i8], ptr %79, i64 0, i64 1
  store i8 %77, ptr %80, align 1, !tbaa !32
  %81 = load ptr, ptr %3, align 8, !tbaa !37
  %82 = load ptr, ptr %3, align 8, !tbaa !37
  %83 = getelementptr inbounds nuw %struct.gif_source_struct, ptr %82, i32 0, i32 3
  %84 = getelementptr inbounds [260 x i8], ptr %83, i64 0, i64 2
  %85 = call i32 @GetDataBlock(ptr noundef %81, ptr noundef %84)
  store i32 %85, ptr %6, align 4, !tbaa !54
  %86 = icmp eq i32 %85, 0
  br i1 %86, label %87, label %109

87:                                               ; preds = %56
  %88 = load ptr, ptr %3, align 8, !tbaa !37
  %89 = getelementptr inbounds nuw %struct.gif_source_struct, ptr %88, i32 0, i32 8
  store i32 1, ptr %89, align 4, !tbaa !91
  %90 = load ptr, ptr %3, align 8, !tbaa !37
  %91 = getelementptr inbounds nuw %struct.gif_source_struct, ptr %90, i32 0, i32 1
  %92 = load ptr, ptr %91, align 8, !tbaa !38
  %93 = getelementptr inbounds nuw %struct.jpeg_compress_struct, ptr %92, i32 0, i32 0
  %94 = load ptr, ptr %93, align 8, !tbaa !27
  %95 = getelementptr inbounds nuw %struct.jpeg_error_mgr, ptr %94, i32 0, i32 5
  store i32 1027, ptr %95, align 8, !tbaa !28
  %96 = load ptr, ptr %3, align 8, !tbaa !37
  %97 = getelementptr inbounds nuw %struct.gif_source_struct, ptr %96, i32 0, i32 1
  %98 = load ptr, ptr %97, align 8, !tbaa !38
  %99 = getelementptr inbounds nuw %struct.jpeg_compress_struct, ptr %98, i32 0, i32 0
  %100 = load ptr, ptr %99, align 8, !tbaa !27
  %101 = getelementptr inbounds nuw %struct.jpeg_error_mgr, ptr %100, i32 0, i32 1
  %102 = load ptr, ptr %101, align 8, !tbaa !55
  %103 = load ptr, ptr %3, align 8, !tbaa !37
  %104 = getelementptr inbounds nuw %struct.gif_source_struct, ptr %103, i32 0, i32 1
  %105 = load ptr, ptr %104, align 8, !tbaa !38
  call void %102(ptr noundef %105, i32 noundef -1)
  %106 = load ptr, ptr %3, align 8, !tbaa !37
  %107 = getelementptr inbounds nuw %struct.gif_source_struct, ptr %106, i32 0, i32 11
  %108 = load i32, ptr %107, align 8, !tbaa !92
  store i32 %108, ptr %2, align 4
  store i32 1, ptr %7, align 4
  br label %186

109:                                              ; preds = %56
  %110 = load ptr, ptr %3, align 8, !tbaa !37
  %111 = getelementptr inbounds nuw %struct.gif_source_struct, ptr %110, i32 0, i32 6
  %112 = load i32, ptr %111, align 4, !tbaa !89
  %113 = load ptr, ptr %3, align 8, !tbaa !37
  %114 = getelementptr inbounds nuw %struct.gif_source_struct, ptr %113, i32 0, i32 5
  %115 = load i32, ptr %114, align 8, !tbaa !88
  %116 = sub nsw i32 %112, %115
  %117 = add nsw i32 %116, 16
  %118 = load ptr, ptr %3, align 8, !tbaa !37
  %119 = getelementptr inbounds nuw %struct.gif_source_struct, ptr %118, i32 0, i32 6
  store i32 %117, ptr %119, align 4, !tbaa !89
  %120 = load i32, ptr %6, align 4, !tbaa !54
  %121 = add nsw i32 2, %120
  %122 = load ptr, ptr %3, align 8, !tbaa !37
  %123 = getelementptr inbounds nuw %struct.gif_source_struct, ptr %122, i32 0, i32 4
  store i32 %121, ptr %123, align 4, !tbaa !87
  %124 = load ptr, ptr %3, align 8, !tbaa !37
  %125 = getelementptr inbounds nuw %struct.gif_source_struct, ptr %124, i32 0, i32 4
  %126 = load i32, ptr %125, align 4, !tbaa !87
  %127 = mul nsw i32 %126, 8
  %128 = load ptr, ptr %3, align 8, !tbaa !37
  %129 = getelementptr inbounds nuw %struct.gif_source_struct, ptr %128, i32 0, i32 5
  store i32 %127, ptr %129, align 8, !tbaa !88
  br label %8, !llvm.loop !118

130:                                              ; preds = %8
  %131 = load ptr, ptr %3, align 8, !tbaa !37
  %132 = getelementptr inbounds nuw %struct.gif_source_struct, ptr %131, i32 0, i32 6
  %133 = load i32, ptr %132, align 4, !tbaa !89
  %134 = ashr i32 %133, 3
  store i32 %134, ptr %5, align 4, !tbaa !54
  %135 = load ptr, ptr %3, align 8, !tbaa !37
  %136 = getelementptr inbounds nuw %struct.gif_source_struct, ptr %135, i32 0, i32 3
  %137 = load i32, ptr %5, align 4, !tbaa !54
  %138 = add nsw i32 %137, 2
  %139 = sext i32 %138 to i64
  %140 = getelementptr inbounds [260 x i8], ptr %136, i64 0, i64 %139
  %141 = load i8, ptr %140, align 1, !tbaa !32
  %142 = zext i8 %141 to i32
  store i32 %142, ptr %4, align 4, !tbaa !54
  %143 = load i32, ptr %4, align 4, !tbaa !54
  %144 = shl i32 %143, 8
  store i32 %144, ptr %4, align 4, !tbaa !54
  %145 = load ptr, ptr %3, align 8, !tbaa !37
  %146 = getelementptr inbounds nuw %struct.gif_source_struct, ptr %145, i32 0, i32 3
  %147 = load i32, ptr %5, align 4, !tbaa !54
  %148 = add nsw i32 %147, 1
  %149 = sext i32 %148 to i64
  %150 = getelementptr inbounds [260 x i8], ptr %146, i64 0, i64 %149
  %151 = load i8, ptr %150, align 1, !tbaa !32
  %152 = zext i8 %151 to i32
  %153 = load i32, ptr %4, align 4, !tbaa !54
  %154 = or i32 %153, %152
  store i32 %154, ptr %4, align 4, !tbaa !54
  %155 = load i32, ptr %4, align 4, !tbaa !54
  %156 = shl i32 %155, 8
  store i32 %156, ptr %4, align 4, !tbaa !54
  %157 = load ptr, ptr %3, align 8, !tbaa !37
  %158 = getelementptr inbounds nuw %struct.gif_source_struct, ptr %157, i32 0, i32 3
  %159 = load i32, ptr %5, align 4, !tbaa !54
  %160 = sext i32 %159 to i64
  %161 = getelementptr inbounds [260 x i8], ptr %158, i64 0, i64 %160
  %162 = load i8, ptr %161, align 1, !tbaa !32
  %163 = zext i8 %162 to i32
  %164 = load i32, ptr %4, align 4, !tbaa !54
  %165 = or i32 %164, %163
  store i32 %165, ptr %4, align 4, !tbaa !54
  %166 = load ptr, ptr %3, align 8, !tbaa !37
  %167 = getelementptr inbounds nuw %struct.gif_source_struct, ptr %166, i32 0, i32 6
  %168 = load i32, ptr %167, align 4, !tbaa !89
  %169 = and i32 %168, 7
  %170 = load i32, ptr %4, align 4, !tbaa !54
  %171 = ashr i32 %170, %169
  store i32 %171, ptr %4, align 4, !tbaa !54
  %172 = load ptr, ptr %3, align 8, !tbaa !37
  %173 = getelementptr inbounds nuw %struct.gif_source_struct, ptr %172, i32 0, i32 12
  %174 = load i32, ptr %173, align 4, !tbaa !107
  %175 = load ptr, ptr %3, align 8, !tbaa !37
  %176 = getelementptr inbounds nuw %struct.gif_source_struct, ptr %175, i32 0, i32 6
  %177 = load i32, ptr %176, align 4, !tbaa !89
  %178 = add nsw i32 %177, %174
  store i32 %178, ptr %176, align 4, !tbaa !89
  %179 = load i32, ptr %4, align 4, !tbaa !54
  %180 = load ptr, ptr %3, align 8, !tbaa !37
  %181 = getelementptr inbounds nuw %struct.gif_source_struct, ptr %180, i32 0, i32 12
  %182 = load i32, ptr %181, align 4, !tbaa !107
  %183 = shl i32 1, %182
  %184 = sub nsw i32 %183, 1
  %185 = and i32 %179, %184
  store i32 %185, ptr %2, align 4
  store i32 1, ptr %7, align 4
  br label %186

186:                                              ; preds = %130, %87, %36, %25
  call void @llvm.lifetime.end.p0(i64 4, ptr %6) #3
  call void @llvm.lifetime.end.p0(i64 4, ptr %5) #3
  call void @llvm.lifetime.end.p0(i64 4, ptr %4) #3
  %187 = load i32, ptr %2, align 4
  ret i32 %187
}