; Function Attrs: nounwind uwtable
define internal fastcc i32 @GetCode(ptr noundef captures(none) %0) unnamed_addr #0 {
  %2 = getelementptr inbounds nuw i8, ptr %0, i64 348
  %3 = getelementptr inbounds nuw i8, ptr %0, i64 372
  %4 = getelementptr inbounds nuw i8, ptr %0, i64 344
  %5 = load i32, ptr %2, align 4, !tbaa !63
  %6 = load i32, ptr %3, align 4, !tbaa !68
  %7 = add nsw i32 %6, %5
  %8 = load i32, ptr %4, align 8, !tbaa !62
  %9 = icmp sgt i32 %7, %8
  br i1 %9, label %.lr.ph, label %._crit_edge

.lr.ph:                                           ; preds = %1
  %10 = getelementptr inbounds nuw i8, ptr %0, i64 352
  %11 = getelementptr inbounds nuw i8, ptr %0, i64 356
  %12 = getelementptr inbounds nuw i8, ptr %0, i64 80
  %13 = getelementptr inbounds nuw i8, ptr %0, i64 340
  %14 = getelementptr inbounds nuw i8, ptr %0, i64 81
  %15 = getelementptr inbounds nuw i8, ptr %0, i64 82
  %16 = getelementptr inbounds nuw i8, ptr %0, i64 24
  %17 = getelementptr inbounds nuw i8, ptr %0, i64 64
  br label %18

18:                                               ; preds = %.lr.ph, %GetDataBlock.exit.thread
  %19 = load i32, ptr %10, align 8, !tbaa !64
  %.not = icmp eq i32 %19, 0
  br i1 %.not, label %23, label %20

20:                                               ; preds = %18
  store i32 0, ptr %10, align 8, !tbaa !64
  %21 = getelementptr inbounds nuw i8, ptr %0, i64 364
  %22 = load i32, ptr %21, align 4, !tbaa !66
  br label %98

23:                                               ; preds = %18
  %24 = load i32, ptr %11, align 4, !tbaa !65
  %.not50 = icmp eq i32 %24, 0
  br i1 %.not50, label %33, label %25

25:                                               ; preds = %23
  %26 = load ptr, ptr %17, align 8, !tbaa !35
  %27 = load ptr, ptr %26, align 8, !tbaa !25
  %28 = getelementptr inbounds nuw i8, ptr %27, i64 40
  store i32 1027, ptr %28, align 8, !tbaa !26
  %29 = getelementptr inbounds nuw i8, ptr %27, i64 8
  %30 = load ptr, ptr %29, align 8, !tbaa !49
  tail call void %30(ptr noundef nonnull %26, i32 noundef -1) #4
  %31 = getelementptr inbounds nuw i8, ptr %0, i64 368
  %32 = load i32, ptr %31, align 8, !tbaa !67
  br label %98

33:                                               ; preds = %23
  %34 = load i32, ptr %13, align 4, !tbaa !61
  %35 = add nsw i32 %34, -2
  %36 = sext i32 %35 to i64
  %37 = getelementptr inbounds [260 x i8], ptr %12, i64 0, i64 %36
  %38 = load i8, ptr %37, align 1, !tbaa !30
  store i8 %38, ptr %12, align 8, !tbaa !30
  %39 = add nsw i32 %34, -1
  %40 = sext i32 %39 to i64
  %41 = getelementptr inbounds [260 x i8], ptr %12, i64 0, i64 %40
  %42 = load i8, ptr %41, align 1, !tbaa !30
  store i8 %42, ptr %14, align 1, !tbaa !30
  %43 = load ptr, ptr %16, align 8, !tbaa !47
  %44 = tail call i32 @getc(ptr noundef %43)
  %45 = icmp eq i32 %44, -1
  br i1 %45, label %.sink.split.i, label %ReadByte.exit.i

ReadByte.exit.i:                                  ; preds = %33
  %46 = icmp sgt i32 %44, 0
  br i1 %46, label %47, label %GetDataBlock.exit

47:                                               ; preds = %ReadByte.exit.i
  %48 = zext nneg i32 %44 to i64
  %49 = load ptr, ptr %16, align 8, !tbaa !47
  %50 = tail call i64 @fread(ptr noundef nonnull %15, i64 noundef 1, i64 noundef %48, ptr noundef %49)
  %51 = icmp eq i64 %50, %48
  br i1 %51, label %GetDataBlock.exit.thread, label %.sink.split.i

.sink.split.i:                                    ; preds = %47, %33
  %52 = load ptr, ptr %17, align 8, !tbaa !35
  %53 = load ptr, ptr %52, align 8, !tbaa !25
  %54 = getelementptr inbounds nuw i8, ptr %53, i64 40
  store i32 43, ptr %54, align 8, !tbaa !26
  %55 = load ptr, ptr %53, align 8, !tbaa !31
  tail call void %55(ptr noundef nonnull %52) #4
  br label %GetDataBlock.exit

GetDataBlock.exit:                                ; preds = %ReadByte.exit.i, %.sink.split.i
  %56 = icmp eq i32 %44, 0
  br i1 %56, label %57, label %GetDataBlock.exit.thread

57:                                               ; preds = %GetDataBlock.exit
  store i32 1, ptr %11, align 4, !tbaa !65
  %58 = load ptr, ptr %17, align 8, !tbaa !35
  %59 = load ptr, ptr %58, align 8, !tbaa !25
  %60 = getelementptr inbounds nuw i8, ptr %59, i64 40
  store i32 1027, ptr %60, align 8, !tbaa !26
  %61 = getelementptr inbounds nuw i8, ptr %59, i64 8
  %62 = load ptr, ptr %61, align 8, !tbaa !49
  tail call void %62(ptr noundef nonnull %58, i32 noundef -1) #4
  %63 = getelementptr inbounds nuw i8, ptr %0, i64 368
  %64 = load i32, ptr %63, align 8, !tbaa !67
  br label %98

GetDataBlock.exit.thread:                         ; preds = %47, %GetDataBlock.exit
  %65 = load i32, ptr %2, align 4, !tbaa !63
  %66 = load i32, ptr %4, align 8, !tbaa !62
  %67 = add i32 %65, 16
  %68 = sub i32 %67, %66
  store i32 %68, ptr %2, align 4, !tbaa !63
  %69 = add nsw i32 %44, 2
  store i32 %69, ptr %13, align 4, !tbaa !61
  %70 = shl nsw i32 %69, 3
  store i32 %70, ptr %4, align 8, !tbaa !62
  %71 = load i32, ptr %3, align 4, !tbaa !68
  %72 = add nsw i32 %71, %68
  %73 = icmp sgt i32 %72, %70
  br i1 %73, label %18, label %._crit_edge, !llvm.loop !108

._crit_edge:                                      ; preds = %GetDataBlock.exit.thread, %1
  %.lcssa58 = phi i32 [ %5, %1 ], [ %68, %GetDataBlock.exit.thread ]
  %.lcssa54 = phi i32 [ %6, %1 ], [ %71, %GetDataBlock.exit.thread ]
  %.lcssa = phi i32 [ %7, %1 ], [ %72, %GetDataBlock.exit.thread ]
  %74 = ashr i32 %.lcssa58, 3
  %75 = getelementptr inbounds nuw i8, ptr %0, i64 80
  %76 = add nsw i32 %74, 2
  %77 = sext i32 %76 to i64
  %78 = getelementptr inbounds [260 x i8], ptr %75, i64 0, i64 %77
  %79 = load i8, ptr %78, align 1, !tbaa !30
  %80 = zext i8 %79 to i32
  %81 = add nsw i32 %74, 1
  %82 = sext i32 %81 to i64
  %83 = getelementptr inbounds [260 x i8], ptr %75, i64 0, i64 %82
  %84 = load i8, ptr %83, align 1, !tbaa !30
  %85 = zext i8 %84 to i32
  %86 = shl nuw nsw i32 %80, 16
  %87 = shl nuw nsw i32 %85, 8
  %88 = or disjoint i32 %87, %86
  %89 = sext i32 %74 to i64
  %90 = getelementptr inbounds [260 x i8], ptr %75, i64 0, i64 %89
  %91 = load i8, ptr %90, align 1, !tbaa !30
  %92 = zext i8 %91 to i32
  %93 = or disjoint i32 %88, %92
  %94 = and i32 %.lcssa58, 7
  %95 = lshr i32 %93, %94
  store i32 %.lcssa, ptr %2, align 4, !tbaa !63
  %notmask = shl nsw i32 -1, %.lcssa54
  %96 = xor i32 %notmask, -1
  %97 = and i32 %95, %96
  br label %98

98:                                               ; preds = %._crit_edge, %57, %25, %20
  %.0 = phi i32 [ %22, %20 ], [ %32, %25 ], [ %64, %57 ], [ %97, %._crit_edge ]
  ret i32 %.0
}